; Function Attrs: mustprogress uwtable
define hidden void @_ZN3opt7context14get_model_coreER3refI5modelE(ptr noundef nonnull align 8 dereferenceable(792) %this, ptr noundef nonnull align 8 dereferenceable(8) %mdl) unnamed_addr #3 align 2 {
entry:
  %m_model = getelementptr inbounds i8, ptr %this, i64 600
  %0 = load ptr, ptr %m_model, align 8
  %tobool.not.i.i = icmp eq ptr %0, null
  br i1 %tobool.not.i.i, label %_ZN3refI5modelE7inc_refEv.exit.i, label %if.then.i.i

if.then.i.i:                                      ; preds = %entry
  %m_ref_count.i.i.i = getelementptr inbounds i8, ptr %0, i64 16
  %1 = load i32, ptr %m_ref_count.i.i.i, align 8
  %inc.i.i.i = add i32 %1, 1
  store i32 %inc.i.i.i, ptr %m_ref_count.i.i.i, align 8
  br label %_ZN3refI5modelE7inc_refEv.exit.i

_ZN3refI5modelE7inc_refEv.exit.i:                 ; preds = %if.then.i.i, %entry
  %2 = load ptr, ptr %mdl, align 8
  %tobool.not.i2.i = icmp eq ptr %2, null
  br i1 %tobool.not.i2.i, label %_ZN3refI5modelEaSERS1_.exit, label %if.then.i3.i

if.then.i3.i:                                     ; preds = %_ZN3refI5modelE7inc_refEv.exit.i
  %m_ref_count.i.i4.i = getelementptr inbounds i8, ptr %2, i64 16
  %3 = load i32, ptr %m_ref_count.i.i4.i, align 8
  %dec.i.i.i = add i32 %3, -1
  store i32 %dec.i.i.i, ptr %m_ref_count.i.i4.i, align 8
  %cmp.i.i.i = icmp eq i32 %dec.i.i.i, 0
  br i1 %cmp.i.i.i, label %if.then.i.i.i, label %_ZN3refI5modelEaSERS1_.exit

if.then.i.i.i:                                    ; preds = %if.then.i3.i
  %vtable.i.i.i.i = load ptr, ptr %2, align 8
  %4 = load ptr, ptr %vtable.i.i.i.i, align 8
  tail call void %4(ptr noundef nonnull align 8 dereferenceable(96) %2) #24
  tail call void @_ZN6memory10deallocateEPv(ptr noundef nonnull %2)
  br label %_ZN3refI5modelEaSERS1_.exit

_ZN3refI5modelEaSERS1_.exit:                      ; preds = %_ZN3refI5modelE7inc_refEv.exit.i, %if.then.i3.i, %if.then.i.i.i
  %5 = load ptr, ptr %m_model, align 8
  store ptr %5, ptr %mdl, align 8
  %vtable = load ptr, ptr %this, align 8
  %vfn = getelementptr inbounds i8, ptr %vtable, i64 168
  %6 = load ptr, ptr %vfn, align 8
  tail call void %6(ptr noundef nonnull align 8 dereferenceable(792) %this, ptr noundef nonnull align 8 dereferenceable(8) %mdl)
  %7 = load ptr, ptr %mdl, align 8
  %cmp.i.not = icmp eq ptr %7, null
  br i1 %cmp.i.not, label %if.end, label %if.then

if.then:                                          ; preds = %_ZN3refI5modelEaSERS1_.exit
  %m_mev.i = getelementptr inbounds i8, ptr %7, i64 128
  tail call void @_ZN15model_evaluator20set_model_completionEb(ptr noundef nonnull align 8 dereferenceable(8) %m_mev.i, i1 noundef zeroext true)
  br label %if.end

if.end:                                           ; preds = %if.then, %_ZN3refI5modelEaSERS1_.exit
  ret void
}